target datalayout = "e-m:e-p270:32:32-p271:32:32-p272:64:64-i64:64-i128:128-f80:128-n8:16:32:64-S128"
target triple = "x86_64-pc-linux-gnu"

%struct.Agobj_s = type { %struct.Agtag_s, ptr }
%struct.Agtag_s = type { i32, i64 }
%struct.Agraphinfo_t = type { %struct.Agrec_s, ptr, ptr, %struct.boxf, [4 x %struct.pointf_s], i8, i8, i8, i8, i32, double, double, i16, ptr, ptr, ptr, ptr, i32, ptr, ptr, ptr, ptr, i16, i16, i32, ptr, ptr, ptr, ptr, ptr, i32, ptr, ptr, %struct.nlist_t, ptr, ptr, i32, i32, i8, i8, i32, i32, i32, ptr, ptr, ptr, ptr, i8, i8, i8, i8, i8 }
%struct.Agrec_s = type { ptr, ptr }
%struct.boxf = type { %struct.pointf_s, %struct.pointf_s }
%struct.pointf_s = type { double, double }
%struct.nlist_t = type { ptr, i64 }
%struct.Agedgeinfo_t = type { %struct.Agrec_s, ptr, %struct.port, %struct.port, ptr, ptr, ptr, ptr, i8, i8, i8, i8, i8, ptr, ptr, double, double, %struct.Ppoly_t, i8, i8, i16, i32, i32, i32, i16, i32, ptr }
%struct.port = type { %struct.pointf_s, double, ptr, i8, i8, i8, i8, i8, i8, ptr }
%struct.Ppoly_t = type { ptr, i64 }

; Function Attrs: nounwind uwtable
define internal void @contain_clustnodes(ptr noundef %0) #0 {
  %2 = alloca ptr, align 8
  %3 = alloca i32, align 4
  %4 = alloca ptr, align 8
  store ptr %0, ptr %2, align 8, !tbaa !3
  call void @llvm.lifetime.start.p0(i64 4, ptr %3) #11
  call void @llvm.lifetime.start.p0(i64 8, ptr %4) #11
  %5 = load ptr, ptr %2, align 8, !tbaa !3
  %6 = load ptr, ptr %2, align 8, !tbaa !3
  %7 = call ptr @dot_root(ptr noundef %6)
  %8 = icmp ne ptr %5, %7
  br i1 %8, label %9, label %43

9:                                                ; preds = %1
  %10 = load ptr, ptr %2, align 8, !tbaa !3
  call void @contain_nodes(ptr noundef %10)
  %11 = load ptr, ptr %2, align 8, !tbaa !3
  %12 = getelementptr inbounds nuw %struct.Agobj_s, ptr %11, i32 0, i32 1
  %13 = load ptr, ptr %12, align 8, !tbaa !8
  %14 = getelementptr inbounds nuw %struct.Agraphinfo_t, ptr %13, i32 0, i32 43
  %15 = load ptr, ptr %14, align 8, !tbaa !174
  %16 = load ptr, ptr %2, align 8, !tbaa !3
  %17 = getelementptr inbounds nuw %struct.Agobj_s, ptr %16, i32 0, i32 1
  %18 = load ptr, ptr %17, align 8, !tbaa !8
  %19 = getelementptr inbounds nuw %struct.Agraphinfo_t, ptr %18, i32 0, i32 44
  %20 = load ptr, ptr %19, align 8, !tbaa !175
  %21 = call ptr @find_fast_edge(ptr noundef %15, ptr noundef %20)
  store ptr %21, ptr %4, align 8, !tbaa !55
  %22 = icmp ne ptr %21, null
  br i1 %22, label %23, label %30

23:                                               ; preds = %9
  %24 = load ptr, ptr %4, align 8, !tbaa !55
  %25 = getelementptr inbounds nuw %struct.Agobj_s, ptr %24, i32 0, i32 1
  %26 = load ptr, ptr %25, align 8, !tbaa !8
  %27 = getelementptr inbounds nuw %struct.Agedgeinfo_t, ptr %26, i32 0, i32 21
  %28 = load i32, ptr %27, align 4, !tbaa !135
  %29 = add nsw i32 %28, 128
  store i32 %29, ptr %27, align 4, !tbaa !135
  br label %42

30:                                               ; preds = %9
  %31 = load ptr, ptr %2, align 8, !tbaa !3
  %32 = getelementptr inbounds nuw %struct.Agobj_s, ptr %31, i32 0, i32 1
  %33 = load ptr, ptr %32, align 8, !tbaa !8
  %34 = getelementptr inbounds nuw %struct.Agraphinfo_t, ptr %33, i32 0, i32 43
  %35 = load ptr, ptr %34, align 8, !tbaa !174
  %36 = load ptr, ptr %2, align 8, !tbaa !3
  %37 = getelementptr inbounds nuw %struct.Agobj_s, ptr %36, i32 0, i32 1
  %38 = load ptr, ptr %37, align 8, !tbaa !8
  %39 = getelementptr inbounds nuw %struct.Agraphinfo_t, ptr %38, i32 0, i32 44
  %40 = load ptr, ptr %39, align 8, !tbaa !175
  %41 = call ptr @make_aux_edge(ptr noundef %35, ptr noundef %40, double noundef 1.000000e+00, i32 noundef 128)
  br label %42

42:                                               ; preds = %30, %23
  br label %43

43:                                               ; preds = %42, %1
  store i32 1, ptr %3, align 4, !tbaa !36
  br label %44

44:                                               ; preds = %62, %43
  %45 = load i32, ptr %3, align 4, !tbaa !36
  %46 = load ptr, ptr %2, align 8, !tbaa !3
  %47 = getelementptr inbounds nuw %struct.Agobj_s, ptr %46, i32 0, i32 1
  %48 = load ptr, ptr %47, align 8, !tbaa !8
  %49 = getelementptr inbounds nuw %struct.Agraphinfo_t, ptr %48, i32 0, i32 24
  %50 = load i32, ptr %49, align 4, !tbaa !173
  %51 = icmp sle i32 %45, %50
  br i1 %51, label %52, label %65

52:                                               ; preds = %44
  %53 = load ptr, ptr %2, align 8, !tbaa !3
  %54 = getelementptr inbounds nuw %struct.Agobj_s, ptr %53, i32 0, i32 1
  %55 = load ptr, ptr %54, align 8, !tbaa !8
  %56 = getelementptr inbounds nuw %struct.Agraphinfo_t, ptr %55, i32 0, i32 25
  %57 = load ptr, ptr %56, align 8, !tbaa !177
  %58 = load i32, ptr %3, align 4, !tbaa !36
  %59 = sext i32 %58 to i64
  %60 = getelementptr inbounds ptr, ptr %57, i64 %59
  %61 = load ptr, ptr %60, align 8, !tbaa !3
  call void @contain_clustnodes(ptr noundef %61)
  br label %62

62:                                               ; preds = %52
  %63 = load i32, ptr %3, align 4, !tbaa !36
  %64 = add nsw i32 %63, 1
  store i32 %64, ptr %3, align 4, !tbaa !36
  br label %44, !llvm.loop !178

65:                                               ; preds = %44
  call void @llvm.lifetime.end.p0(i64 8, ptr %4) #11
  call void @llvm.lifetime.end.p0(i64 4, ptr %3) #11
  ret void
}