; Function Attrs: nounwind uwtable
define internal fastcc void @contain_clustnodes(ptr noundef %0) unnamed_addr #0 {
  %2 = tail call ptr @dot_root(ptr noundef %0) #15
  %.not = icmp eq ptr %0, %2
  br i1 %.not, label %24, label %3

3:                                                ; preds = %1
  tail call fastcc void @contain_nodes(ptr noundef %0)
  %4 = getelementptr inbounds nuw i8, ptr %0, i64 16
  %5 = load ptr, ptr %4, align 8, !tbaa !3
  %6 = getelementptr inbounds nuw i8, ptr %5, i64 360
  %7 = load ptr, ptr %6, align 8, !tbaa !118
  %8 = getelementptr inbounds nuw i8, ptr %5, i64 368
  %9 = load ptr, ptr %8, align 8, !tbaa !119
  %10 = tail call ptr @find_fast_edge(ptr noundef %7, ptr noundef %9) #15
  %.not14 = icmp eq ptr %10, null
  br i1 %.not14, label %17, label %11

11:                                               ; preds = %3
  %12 = getelementptr inbounds nuw i8, ptr %10, i64 16
  %13 = load ptr, ptr %12, align 8, !tbaa !3
  %14 = getelementptr inbounds nuw i8, ptr %13, i64 212
  %15 = load i32, ptr %14, align 4, !tbaa !98
  %16 = add nsw i32 %15, 128
  store i32 %16, ptr %14, align 4, !tbaa !98
  br label %24

17:                                               ; preds = %3
  %18 = load ptr, ptr %4, align 8, !tbaa !3
  %19 = getelementptr inbounds nuw i8, ptr %18, i64 360
  %20 = load ptr, ptr %19, align 8, !tbaa !118
  %21 = getelementptr inbounds nuw i8, ptr %18, i64 368
  %22 = load ptr, ptr %21, align 8, !tbaa !119
  %23 = tail call ptr @make_aux_edge(ptr noundef %20, ptr noundef %22, double noundef 1.000000e+00, i32 noundef 128)
  br label %24

24:                                               ; preds = %11, %17, %1
  %25 = getelementptr inbounds nuw i8, ptr %0, i64 16
  %26 = load ptr, ptr %25, align 8, !tbaa !3
  %27 = getelementptr inbounds nuw i8, ptr %26, i64 236
  %28 = load i32, ptr %27, align 4, !tbaa !112
  %.not1516 = icmp slt i32 %28, 1
  br i1 %.not1516, label %._crit_edge, label %.lr.ph

.lr.ph:                                           ; preds = %24, %.lr.ph
  %indvars.iv = phi i64 [ %indvars.iv.next, %.lr.ph ], [ 1, %24 ]
  %29 = phi ptr [ %34, %.lr.ph ], [ %26, %24 ]
  %30 = getelementptr inbounds nuw i8, ptr %29, i64 240
  %31 = load ptr, ptr %30, align 8, !tbaa !165
  %32 = getelementptr inbounds nuw ptr, ptr %31, i64 %indvars.iv
  %33 = load ptr, ptr %32, align 8, !tbaa !166
  tail call fastcc void @contain_clustnodes(ptr noundef %33)
  %indvars.iv.next = add nuw nsw i64 %indvars.iv, 1
  %34 = load ptr, ptr %25, align 8, !tbaa !3
  %35 = getelementptr inbounds nuw i8, ptr %34, i64 236
  %36 = load i32, ptr %35, align 4, !tbaa !112
  %37 = sext i32 %36 to i64
  %.not15.not = icmp slt i64 %indvars.iv, %37
  br i1 %.not15.not, label %.lr.ph, label %._crit_edge, !llvm.loop !167

._crit_edge:                                      ; preds = %.lr.ph, %24
  ret void
}